; ModuleID = 'bench/linux/original/dm-linear.ll'
source_filename = "bench/linux/original/dm-linear.ll"
target datalayout = "e-m:e-p270:32:32-p271:32:32-p272:64:64-i64:64-i128:128-f80:128-n8:16:32:64-S128"
target triple = "x86_64-unknown-linux-gnu"

%struct.target_type = type { i64, ptr, ptr, [3 x i32], ptr, ptr, ptr, ptr, ptr, ptr, ptr, ptr, ptr, ptr, ptr, ptr, ptr, ptr, ptr, ptr, ptr, ptr, ptr, ptr, ptr, ptr, %struct.list_head }
%struct.list_head = type { ptr, ptr }

@linear_target = internal global %struct.target_type { i64 416, ptr @.str.1, ptr null, [3 x i32] [i32 1, i32 4, i32 0], ptr @linear_ctr, ptr @linear_dtr, ptr @linear_map, ptr null, ptr null, ptr null, ptr null, ptr null, ptr null, ptr null, ptr null, ptr null, ptr @linear_status, ptr null, ptr @linear_prepare_ioctl, ptr null, ptr null, ptr @linear_iterate_devices, ptr null, ptr null, ptr null, ptr null, %struct.list_head zeroinitializer }, align 8
@.str = private unnamed_addr constant [45 x i8] c"\013device-mapper: linear: register failed %d\0A\00", align 1
@.str.1 = private unnamed_addr constant [7 x i8] c"linear\00", align 1
@.str.2 = private unnamed_addr constant [23 x i8] c"Invalid argument count\00", align 1
@.str.3 = private unnamed_addr constant [31 x i8] c"Cannot allocate linear context\00", align 1
@.str.4 = private unnamed_addr constant [7 x i8] c"%llu%c\00", align 1
@.str.5 = private unnamed_addr constant [22 x i8] c"Invalid device sector\00", align 1
@.str.6 = private unnamed_addr constant [21 x i8] c"Device lookup failed\00", align 1
@kmalloc_caches = external dso_local local_unnamed_addr global [3 x [14 x ptr]], align 16
@.str.8 = private unnamed_addr constant [8 x i8] c"%s %llu\00", align 1
@.str.9 = private unnamed_addr constant [39 x i8] c"target_name=%s,target_version=%u.%u.%u\00", align 1
@.str.10 = private unnamed_addr constant [28 x i8] c",device_name=%s,start=%llu;\00", align 1

; Function Attrs: fn_ret_thunk_extern nounwind null_pointer_is_valid
define dso_local noundef i32 @linear_map(ptr nocapture noundef readonly %0, ptr noundef %1) #0 align 16 {
  %3 = getelementptr inbounds i8, ptr %0, i64 56
  %4 = load ptr, ptr %3, align 8
  %5 = load ptr, ptr %4, align 8
  %6 = load ptr, ptr %5, align 8
  %7 = getelementptr inbounds i8, ptr %1, i64 20
  %8 = load i16, ptr %7, align 4
  %9 = and i16 %8, -2049
  store i16 %9, ptr %7, align 4
  %10 = getelementptr inbounds i8, ptr %1, i64 8
  %11 = load ptr, ptr %10, align 8
  %12 = icmp eq ptr %11, %6
  br i1 %12, label %15, label %13

13:                                               ; preds = %2
  %14 = and i16 %8, -2113
  store i16 %14, ptr %7, align 4
  br label %15

15:                                               ; preds = %13, %2
  store ptr %6, ptr %10, align 8
  tail call void @bio_associate_blkg(ptr noundef %1) #8
  %16 = getelementptr inbounds i8, ptr %1, i64 32
  %17 = load i64, ptr %16, align 8
  %18 = load ptr, ptr %3, align 8
  %19 = getelementptr inbounds i8, ptr %18, i64 8
  %20 = load i64, ptr %19, align 8
  %21 = getelementptr inbounds i8, ptr %0, i64 16
  %22 = load i64, ptr %21, align 8
  %23 = add i64 %20, %17
  %24 = sub i64 %23, %22
  store i64 %24, ptr %16, align 8
  ret i32 1
}

; Function Attrs: mustprogress nocallback nofree nosync nounwind willreturn memory(argmem: readwrite)
declare void @llvm.lifetime.start.p0(i64 immarg, ptr nocapture) #1

; Function Attrs: mustprogress nocallback nofree nosync nounwind willreturn memory(argmem: readwrite)
declare void @llvm.lifetime.end.p0(i64 immarg, ptr nocapture) #1

; Function Attrs: cold fn_ret_thunk_extern nounwind null_pointer_is_valid optsize
define dso_local i32 @dm_linear_init() local_unnamed_addr #2 section ".init.text" align 16 {
  %1 = tail call i32 @dm_register_target(ptr noundef nonnull @linear_target) #8
  %2 = icmp slt i32 %1, 0
  br i1 %2, label %3, label %5

3:                                                ; preds = %0
  %4 = tail call i32 (ptr, ...) @_printk(ptr noundef nonnull @.str, i32 noundef %1) #9
  br label %5

5:                                                ; preds = %3, %0
  ret i32 %1
}

; Function Attrs: null_pointer_is_valid
declare dso_local i32 @dm_register_target(ptr noundef) local_unnamed_addr #3

; Function Attrs: cold null_pointer_is_valid
declare dso_local i32 @_printk(ptr noundef, ...) local_unnamed_addr #4

; Function Attrs: fn_ret_thunk_extern nounwind null_pointer_is_valid
define dso_local void @dm_linear_exit() local_unnamed_addr #0 align 16 {
  tail call void @dm_unregister_target(ptr noundef nonnull @linear_target) #8
  ret void
}

; Function Attrs: null_pointer_is_valid
declare dso_local void @dm_unregister_target(ptr noundef) local_unnamed_addr #3

; Function Attrs: null_pointer_is_valid
declare dso_local void @bio_associate_blkg(ptr noundef) local_unnamed_addr #3

; Function Attrs: fn_ret_thunk_extern nounwind null_pointer_is_valid
define internal i32 @linear_ctr(ptr noundef %0, i32 noundef %1, ptr nocapture noundef readonly %2) #0 align 16 {
  %4 = alloca i64, align 8
  %5 = alloca i8, align 1
  call void @llvm.lifetime.start.p0(i64 8, ptr nonnull %4) #8
  call void @llvm.lifetime.start.p0(i64 1, ptr nonnull %5) #8
  %6 = icmp eq i32 %1, 2
  br i1 %6, label %9, label %7

7:                                                ; preds = %3
  %8 = getelementptr inbounds i8, ptr %0, i64 64
  store ptr @.str.2, ptr %8, align 8
  br label %38

9:                                                ; preds = %3
  %10 = load ptr, ptr getelementptr inbounds ([3 x [14 x ptr]], ptr @kmalloc_caches, i64 0, i64 0, i64 4), align 16
  %11 = tail call noalias align 8 dereferenceable_or_null(16) ptr @kmalloc_trace(ptr noundef %10, i32 noundef 3264, i64 noundef 16) #10
  %12 = icmp eq ptr %11, null
  br i1 %12, label %13, label %15

13:                                               ; preds = %9
  %14 = getelementptr inbounds i8, ptr %0, i64 64
  store ptr @.str.3, ptr %14, align 8
  br label %38

15:                                               ; preds = %9
  store i64 0, ptr %4, align 8, !annotation !5
  store i8 0, ptr %5, align 1, !annotation !5
  %16 = getelementptr i8, ptr %2, i64 8
  %17 = load ptr, ptr %16, align 8
  %18 = call i32 (ptr, ptr, ...) @sscanf(ptr noundef %17, ptr noundef nonnull @.str.4, ptr noundef nonnull %4, ptr noundef nonnull %5)
  %19 = icmp eq i32 %18, 1
  br i1 %19, label %20, label %34

20:                                               ; preds = %15
  %21 = load i64, ptr %4, align 8
  %22 = getelementptr inbounds i8, ptr %11, i64 8
  store i64 %21, ptr %22, align 8
  %23 = load ptr, ptr %2, align 8
  %24 = load ptr, ptr %0, align 8
  %25 = call i32 @dm_table_get_mode(ptr noundef %24) #8
  %26 = call i32 @dm_get_device(ptr noundef %0, ptr noundef %23, i32 noundef %25, ptr noundef nonnull %11) #8
  %27 = icmp eq i32 %26, 0
  br i1 %27, label %28, label %34

28:                                               ; preds = %20
  %29 = getelementptr inbounds i8, ptr %0, i64 36
  store i32 1, ptr %29, align 4
  %30 = getelementptr inbounds i8, ptr %0, i64 40
  store i32 1, ptr %30, align 8
  %31 = getelementptr inbounds i8, ptr %0, i64 44
  store i32 1, ptr %31, align 4
  %32 = getelementptr inbounds i8, ptr %0, i64 48
  store i32 1, ptr %32, align 8
  %33 = getelementptr inbounds i8, ptr %0, i64 56
  store ptr %11, ptr %33, align 8
  br label %38

34:                                               ; preds = %20, %15
  %35 = phi ptr [ @.str.5, %15 ], [ @.str.6, %20 ]
  %36 = phi i32 [ -22, %15 ], [ %26, %20 ]
  %37 = getelementptr inbounds i8, ptr %0, i64 64
  store ptr %35, ptr %37, align 8
  call void @kfree(ptr noundef nonnull %11) #8
  br label %38

38:                                               ; preds = %34, %28, %13, %7
  %39 = phi i32 [ -22, %7 ], [ -12, %13 ], [ %36, %34 ], [ 0, %28 ]
  call void @llvm.lifetime.end.p0(i64 1, ptr nonnull %5) #8
  call void @llvm.lifetime.end.p0(i64 8, ptr nonnull %4) #8
  ret i32 %39
}

; Function Attrs: fn_ret_thunk_extern nounwind null_pointer_is_valid
define internal void @linear_dtr(ptr noundef %0) #0 align 16 {
  %2 = getelementptr inbounds i8, ptr %0, i64 56
  %3 = load ptr, ptr %2, align 8
  %4 = load ptr, ptr %3, align 8
  tail call void @dm_put_device(ptr noundef %0, ptr noundef %4) #8
  tail call void @kfree(ptr noundef %3) #8
  ret void
}

; Function Attrs: fn_ret_thunk_extern nounwind null_pointer_is_valid
define internal void @linear_status(ptr nocapture noundef readonly %0, i32 noundef %1, i32 %2, ptr noundef %3, i32 noundef %4) #0 align 16 {
  %6 = getelementptr inbounds i8, ptr %0, i64 56
  %7 = load ptr, ptr %6, align 8
  switch i32 %1, label %45 [
    i32 0, label %8
    i32 1, label %9
    i32 2, label %18
  ]

8:                                                ; preds = %5
  store i8 0, ptr %3, align 1
  br label %45

9:                                                ; preds = %5
  %10 = icmp eq i32 %4, 0
  br i1 %10, label %45, label %11

11:                                               ; preds = %9
  %12 = zext i32 %4 to i64
  %13 = load ptr, ptr %7, align 8
  %14 = getelementptr inbounds i8, ptr %13, i64 28
  %15 = getelementptr inbounds i8, ptr %7, i64 8
  %16 = load i64, ptr %15, align 8
  %17 = tail call i32 (ptr, i64, ptr, ...) @scnprintf(ptr noundef %3, i64 noundef %12, ptr noundef nonnull @.str.8, ptr noundef %14, i64 noundef %16) #8
  br label %45

18:                                               ; preds = %5
  %19 = zext i32 %4 to i64
  %20 = icmp eq i32 %4, 0
  br i1 %20, label %34, label %21

21:                                               ; preds = %18
  %22 = getelementptr inbounds i8, ptr %0, i64 8
  %23 = load ptr, ptr %22, align 8
  %24 = getelementptr inbounds i8, ptr %23, i64 8
  %25 = load ptr, ptr %24, align 8
  %26 = getelementptr inbounds i8, ptr %23, i64 24
  %27 = load i32, ptr %26, align 8
  %28 = getelementptr i8, ptr %23, i64 28
  %29 = load i32, ptr %28, align 4
  %30 = getelementptr i8, ptr %23, i64 32
  %31 = load i32, ptr %30, align 8
  %32 = tail call i32 (ptr, i64, ptr, ...) @scnprintf(ptr noundef %3, i64 noundef %19, ptr noundef nonnull @.str.9, ptr noundef %25, i32 noundef %27, i32 noundef %29, i32 noundef %31) #8
  %33 = sext i32 %32 to i64
  br label %34

34:                                               ; preds = %21, %18
  %35 = phi i64 [ %33, %21 ], [ 0, %18 ]
  %36 = icmp ult i64 %35, %19
  br i1 %36, label %37, label %45

37:                                               ; preds = %34
  %38 = getelementptr i8, ptr %3, i64 %35
  %39 = sub nsw i64 %19, %35
  %40 = load ptr, ptr %7, align 8
  %41 = getelementptr inbounds i8, ptr %40, i64 28
  %42 = getelementptr inbounds i8, ptr %7, i64 8
  %43 = load i64, ptr %42, align 8
  %44 = tail call i32 (ptr, i64, ptr, ...) @scnprintf(ptr noundef %38, i64 noundef %39, ptr noundef nonnull @.str.10, ptr noundef %41, i64 noundef %43) #8
  br label %45

45:                                               ; preds = %37, %34, %11, %9, %8, %5
  ret void
}

; Function Attrs: fn_ret_thunk_extern mustprogress nofree norecurse nosync nounwind null_pointer_is_valid willreturn memory(read, argmem: readwrite, inaccessiblemem: none)
define internal i32 @linear_prepare_ioctl(ptr nocapture noundef readonly %0, ptr nocapture noundef writeonly %1) #5 align 16 {
  %3 = getelementptr inbounds i8, ptr %0, i64 56
  %4 = load ptr, ptr %3, align 8
  %5 = load ptr, ptr %4, align 8
  %6 = load ptr, ptr %5, align 8
  store ptr %6, ptr %1, align 8
  %7 = getelementptr inbounds i8, ptr %4, i64 8
  %8 = load i64, ptr %7, align 8
  %9 = icmp eq i64 %8, 0
  br i1 %9, label %10, label %17

10:                                               ; preds = %2
  %11 = getelementptr inbounds i8, ptr %0, i64 24
  %12 = load i64, ptr %11, align 8
  %13 = getelementptr inbounds i8, ptr %6, i64 8
  %14 = load i64, ptr %13, align 8
  %15 = icmp ne i64 %12, %14
  %16 = zext i1 %15 to i32
  br label %17

17:                                               ; preds = %10, %2
  %18 = phi i32 [ 1, %2 ], [ %16, %10 ]
  ret i32 %18
}

; Function Attrs: fn_ret_thunk_extern nounwind null_pointer_is_valid
define internal i32 @linear_iterate_devices(ptr noundef %0, ptr nocapture noundef readonly %1, ptr noundef %2) #0 align 16 {
  %4 = getelementptr inbounds i8, ptr %0, i64 56
  %5 = load ptr, ptr %4, align 8
  %6 = load ptr, ptr %5, align 8
  %7 = getelementptr inbounds i8, ptr %5, i64 8
  %8 = load i64, ptr %7, align 8
  %9 = getelementptr inbounds i8, ptr %0, i64 24
  %10 = load i64, ptr %9, align 8
  %11 = tail call i32 %1(ptr noundef %0, ptr noundef %6, i64 noundef %8, i64 noundef %10, ptr noundef %2) #8
  ret i32 %11
}

; Function Attrs: nofree nounwind null_pointer_is_valid
declare dso_local noundef i32 @sscanf(ptr nocapture noundef readonly, ptr nocapture noundef readonly, ...) local_unnamed_addr #6

; Function Attrs: null_pointer_is_valid
declare dso_local i32 @dm_get_device(ptr noundef, ptr noundef, i32 noundef, ptr noundef) local_unnamed_addr #3

; Function Attrs: null_pointer_is_valid
declare dso_local i32 @dm_table_get_mode(ptr noundef) local_unnamed_addr #3

; Function Attrs: null_pointer_is_valid
declare dso_local void @kfree(ptr noundef) local_unnamed_addr #3

; Function Attrs: null_pointer_is_valid allocsize(2)
declare dso_local noalias ptr @kmalloc_trace(ptr noundef, i32 noundef, i64 noundef) local_unnamed_addr #7

; Function Attrs: null_pointer_is_valid
declare dso_local void @dm_put_device(ptr noundef, ptr noundef) local_unnamed_addr #3

; Function Attrs: null_pointer_is_valid
declare dso_local i32 @scnprintf(ptr noundef, i64 noundef, ptr noundef, ...) local_unnamed_addr #3


!llvm.module.flags = !{!0, !1, !2, !3, !4}

!0 = !{i32 1, !"wchar_size", i32 2}
!1 = !{i32 8, !"cf-protection-branch", i32 1}
!2 = !{i32 4, !"function_return_thunk_extern", i32 1}
!3 = !{i32 4, !"indirect_branch_cs_prefix", i32 1}
!4 = !{i32 4, !"SkipRaxSetup", i32 1}
!5 = !{!"auto-init"}
